; Function Attrs: nounwind uwtable
define hidden ptr @Curl_checkheaders(ptr noundef readonly captures(none) %0, ptr noundef %1, i64 noundef %2) local_unnamed_addr #0 {
  %4 = getelementptr inbounds nuw i8, ptr %0, i64 816
  %.014 = load ptr, ptr %4, align 8, !tbaa !3
  %.not15 = icmp eq ptr %.014, null
  br i1 %.not15, label %._crit_edge, label %.lr.ph

.lr.ph:                                           ; preds = %3, %12
  %.016 = phi ptr [ %.0, %12 ], [ %.014, %3 ]
  %5 = load ptr, ptr %.016, align 8, !tbaa !8
  %6 = tail call i32 @curl_strnequal(ptr noundef %5, ptr noundef %1, i64 noundef %2) #6
  %.not13 = icmp eq i32 %6, 0
  br i1 %.not13, label %12, label %7

7:                                                ; preds = %.lr.ph
  %8 = load ptr, ptr %.016, align 8, !tbaa !8
  %9 = getelementptr inbounds nuw i8, ptr %8, i64 %2
  %10 = load i8, ptr %9, align 1, !tbaa !11
  %11 = and i8 %10, -2
  %switch = icmp eq i8 %11, 58
  br i1 %switch, label %._crit_edge, label %12

12:                                               ; preds = %7, %.lr.ph
  %13 = getelementptr inbounds nuw i8, ptr %.016, i64 8
  %.0 = load ptr, ptr %13, align 8, !tbaa !3
  %.not = icmp eq ptr %.0, null
  br i1 %.not, label %._crit_edge, label %.lr.ph, !llvm.loop !12

._crit_edge:                                      ; preds = %12, %7, %3
  %.011 = phi ptr [ null, %3 ], [ %8, %7 ], [ null, %12 ]
  ret ptr %.011
}